target datalayout = "e-m:e-p270:32:32-p271:32:32-p272:64:64-i64:64-i128:128-f80:128-n8:16:32:64-S128"
target triple = "x86_64-pc-linux-gnu"

%struct.FT_ListRec_ = type { ptr, ptr }
%struct.TT_GlyphZoneRec_ = type { ptr, i16, i16, i16, i16, ptr, ptr, ptr, ptr, ptr, i16 }
%struct.FT_BBox_ = type { i64, i64, i64, i64 }
%struct.FT_Vector_ = type { i64, i64 }
%struct.TT_LoaderRec_ = type { ptr, ptr, ptr, ptr, i64, i32, ptr, i32, i16, %struct.FT_BBox_, i32, i32, i32, i8, %struct.FT_Vector_, %struct.FT_Vector_, %struct.TT_GlyphZoneRec_, %struct.TT_GlyphZoneRec_, ptr, ptr, i64, ptr, i32, i32, %struct.FT_Vector_, %struct.FT_Vector_, ptr, ptr, %struct.FT_ListRec_, ptr }

; Function Attrs: nounwind uwtable
define internal i32 @TT_Load_Glyph_Header(ptr noundef %0) #0 {
  %2 = alloca i32, align 4
  %3 = alloca ptr, align 8
  %4 = alloca ptr, align 8
  %5 = alloca ptr, align 8
  store ptr %0, ptr %3, align 8
  %6 = load ptr, ptr %3, align 8
  %7 = getelementptr inbounds %struct.TT_LoaderRec_, ptr %6, i32 0, i32 26
  %8 = load ptr, ptr %7, align 8
  store ptr %8, ptr %4, align 8
  %9 = load ptr, ptr %3, align 8
  %10 = getelementptr inbounds %struct.TT_LoaderRec_, ptr %9, i32 0, i32 27
  %11 = load ptr, ptr %10, align 8
  store ptr %11, ptr %5, align 8
  %12 = load ptr, ptr %4, align 8
  %13 = getelementptr inbounds i8, ptr %12, i64 10
  %14 = load ptr, ptr %5, align 8
  %15 = icmp ugt ptr %13, %14
  br i1 %15, label %16, label %17

16:                                               ; preds = %1
  store i32 20, ptr %2, align 4
  br label %135

17:                                               ; preds = %1
  %18 = load ptr, ptr %4, align 8
  %19 = getelementptr inbounds i8, ptr %18, i64 2
  store ptr %19, ptr %4, align 8
  %20 = load ptr, ptr %4, align 8
  %21 = getelementptr inbounds i8, ptr %20, i64 -2
  %22 = getelementptr inbounds i8, ptr %21, i64 0
  %23 = load i8, ptr %22, align 1
  %24 = zext i8 %23 to i16
  %25 = zext i16 %24 to i32
  %26 = shl i32 %25, 8
  %27 = load ptr, ptr %4, align 8
  %28 = getelementptr inbounds i8, ptr %27, i64 -2
  %29 = getelementptr inbounds i8, ptr %28, i64 1
  %30 = load i8, ptr %29, align 1
  %31 = zext i8 %30 to i16
  %32 = zext i16 %31 to i32
  %33 = shl i32 %32, 0
  %34 = or i32 %26, %33
  %35 = trunc i32 %34 to i16
  %36 = load ptr, ptr %3, align 8
  %37 = getelementptr inbounds %struct.TT_LoaderRec_, ptr %36, i32 0, i32 8
  store i16 %35, ptr %37, align 4
  %38 = load ptr, ptr %4, align 8
  %39 = getelementptr inbounds i8, ptr %38, i64 2
  store ptr %39, ptr %4, align 8
  %40 = load ptr, ptr %4, align 8
  %41 = getelementptr inbounds i8, ptr %40, i64 -2
  %42 = getelementptr inbounds i8, ptr %41, i64 0
  %43 = load i8, ptr %42, align 1
  %44 = zext i8 %43 to i16
  %45 = zext i16 %44 to i32
  %46 = shl i32 %45, 8
  %47 = load ptr, ptr %4, align 8
  %48 = getelementptr inbounds i8, ptr %47, i64 -2
  %49 = getelementptr inbounds i8, ptr %48, i64 1
  %50 = load i8, ptr %49, align 1
  %51 = zext i8 %50 to i16
  %52 = zext i16 %51 to i32
  %53 = shl i32 %52, 0
  %54 = or i32 %46, %53
  %55 = trunc i32 %54 to i16
  %56 = sext i16 %55 to i64
  %57 = load ptr, ptr %3, align 8
  %58 = getelementptr inbounds %struct.TT_LoaderRec_, ptr %57, i32 0, i32 9
  %59 = getelementptr inbounds %struct.FT_BBox_, ptr %58, i32 0, i32 0
  store i64 %56, ptr %59, align 8
  %60 = load ptr, ptr %4, align 8
  %61 = getelementptr inbounds i8, ptr %60, i64 2
  store ptr %61, ptr %4, align 8
  %62 = load ptr, ptr %4, align 8
  %63 = getelementptr inbounds i8, ptr %62, i64 -2
  %64 = getelementptr inbounds i8, ptr %63, i64 0
  %65 = load i8, ptr %64, align 1
  %66 = zext i8 %65 to i16
  %67 = zext i16 %66 to i32
  %68 = shl i32 %67, 8
  %69 = load ptr, ptr %4, align 8
  %70 = getelementptr inbounds i8, ptr %69, i64 -2
  %71 = getelementptr inbounds i8, ptr %70, i64 1
  %72 = load i8, ptr %71, align 1
  %73 = zext i8 %72 to i16
  %74 = zext i16 %73 to i32
  %75 = shl i32 %74, 0
  %76 = or i32 %68, %75
  %77 = trunc i32 %76 to i16
  %78 = sext i16 %77 to i64
  %79 = load ptr, ptr %3, align 8
  %80 = getelementptr inbounds %struct.TT_LoaderRec_, ptr %79, i32 0, i32 9
  %81 = getelementptr inbounds %struct.FT_BBox_, ptr %80, i32 0, i32 1
  store i64 %78, ptr %81, align 8
  %82 = load ptr, ptr %4, align 8
  %83 = getelementptr inbounds i8, ptr %82, i64 2
  store ptr %83, ptr %4, align 8
  %84 = load ptr, ptr %4, align 8
  %85 = getelementptr inbounds i8, ptr %84, i64 -2
  %86 = getelementptr inbounds i8, ptr %85, i64 0
  %87 = load i8, ptr %86, align 1
  %88 = zext i8 %87 to i16
  %89 = zext i16 %88 to i32
  %90 = shl i32 %89, 8
  %91 = load ptr, ptr %4, align 8
  %92 = getelementptr inbounds i8, ptr %91, i64 -2
  %93 = getelementptr inbounds i8, ptr %92, i64 1
  %94 = load i8, ptr %93, align 1
  %95 = zext i8 %94 to i16
  %96 = zext i16 %95 to i32
  %97 = shl i32 %96, 0
  %98 = or i32 %90, %97
  %99 = trunc i32 %98 to i16
  %100 = sext i16 %99 to i64
  %101 = load ptr, ptr %3, align 8
  %102 = getelementptr inbounds %struct.TT_LoaderRec_, ptr %101, i32 0, i32 9
  %103 = getelementptr inbounds %struct.FT_BBox_, ptr %102, i32 0, i32 2
  store i64 %100, ptr %103, align 8
  %104 = load ptr, ptr %4, align 8
  %105 = getelementptr inbounds i8, ptr %104, i64 2
  store ptr %105, ptr %4, align 8
  %106 = load ptr, ptr %4, align 8
  %107 = getelementptr inbounds i8, ptr %106, i64 -2
  %108 = getelementptr inbounds i8, ptr %107, i64 0
  %109 = load i8, ptr %108, align 1
  %110 = zext i8 %109 to i16
  %111 = zext i16 %110 to i32
  %112 = shl i32 %111, 8
  %113 = load ptr, ptr %4, align 8
  %114 = getelementptr inbounds i8, ptr %113, i64 -2
  %115 = getelementptr inbounds i8, ptr %114, i64 1
  %116 = load i8, ptr %115, align 1
  %117 = zext i8 %116 to i16
  %118 = zext i16 %117 to i32
  %119 = shl i32 %118, 0
  %120 = or i32 %112, %119
  %121 = trunc i32 %120 to i16
  %122 = sext i16 %121 to i64
  %123 = load ptr, ptr %3, align 8
  %124 = getelementptr inbounds %struct.TT_LoaderRec_, ptr %123, i32 0, i32 9
  %125 = getelementptr inbounds %struct.FT_BBox_, ptr %124, i32 0, i32 3
  store i64 %122, ptr %125, align 8
  br label %126

126:                                              ; preds = %17
  br label %127

127:                                              ; preds = %126
  br label %128

128:                                              ; preds = %127
  br label %129

129:                                              ; preds = %128
  br label %130

130:                                              ; preds = %129
  br label %131

131:                                              ; preds = %130
  %132 = load ptr, ptr %4, align 8
  %133 = load ptr, ptr %3, align 8
  %134 = getelementptr inbounds %struct.TT_LoaderRec_, ptr %133, i32 0, i32 26
  store ptr %132, ptr %134, align 8
  store i32 0, ptr %2, align 4
  br label %135

135:                                              ; preds = %131, %16
  %136 = load i32, ptr %2, align 4
  ret i32 %136
}