; Function Attrs: mustprogress nofree norecurse nosync nounwind willreturn memory(read, argmem: readwrite, inaccessiblemem: none) uwtable
define internal range(i32 0, 21) i32 @TT_Load_Glyph_Header(ptr nocapture noundef %0) #8 {
  %2 = getelementptr inbounds i8, ptr %0, i64 344
  %3 = load ptr, ptr %2, align 8
  %4 = getelementptr inbounds i8, ptr %0, i64 352
  %5 = load ptr, ptr %4, align 8
  %6 = getelementptr inbounds i8, ptr %3, i64 10
  %7 = icmp ugt ptr %6, %5
  br i1 %7, label %57, label %8

8:                                                ; preds = %1
  %9 = load i8, ptr %3, align 1
  %10 = zext i8 %9 to i16
  %11 = shl nuw i16 %10, 8
  %12 = getelementptr inbounds i8, ptr %3, i64 1
  %13 = load i8, ptr %12, align 1
  %14 = zext i8 %13 to i16
  %15 = or disjoint i16 %11, %14
  %16 = getelementptr inbounds i8, ptr %0, i64 60
  store i16 %15, ptr %16, align 4
  %17 = getelementptr inbounds i8, ptr %3, i64 2
  %18 = load i8, ptr %17, align 1
  %19 = zext i8 %18 to i16
  %20 = shl nuw i16 %19, 8
  %21 = getelementptr inbounds i8, ptr %3, i64 3
  %22 = load i8, ptr %21, align 1
  %23 = zext i8 %22 to i16
  %24 = or disjoint i16 %20, %23
  %25 = sext i16 %24 to i64
  %26 = getelementptr inbounds i8, ptr %0, i64 64
  store i64 %25, ptr %26, align 8
  %27 = getelementptr inbounds i8, ptr %3, i64 4
  %28 = load i8, ptr %27, align 1
  %29 = zext i8 %28 to i16
  %30 = shl nuw i16 %29, 8
  %31 = getelementptr inbounds i8, ptr %3, i64 5
  %32 = load i8, ptr %31, align 1
  %33 = zext i8 %32 to i16
  %34 = or disjoint i16 %30, %33
  %35 = sext i16 %34 to i64
  %36 = getelementptr inbounds i8, ptr %0, i64 72
  store i64 %35, ptr %36, align 8
  %37 = getelementptr inbounds i8, ptr %3, i64 6
  %38 = load i8, ptr %37, align 1
  %39 = zext i8 %38 to i16
  %40 = shl nuw i16 %39, 8
  %41 = getelementptr inbounds i8, ptr %3, i64 7
  %42 = load i8, ptr %41, align 1
  %43 = zext i8 %42 to i16
  %44 = or disjoint i16 %40, %43
  %45 = sext i16 %44 to i64
  %46 = getelementptr inbounds i8, ptr %0, i64 80
  store i64 %45, ptr %46, align 8
  %47 = getelementptr inbounds i8, ptr %3, i64 8
  %48 = load i8, ptr %47, align 1
  %49 = zext i8 %48 to i16
  %50 = shl nuw i16 %49, 8
  %51 = getelementptr inbounds i8, ptr %3, i64 9
  %52 = load i8, ptr %51, align 1
  %53 = zext i8 %52 to i16
  %54 = or disjoint i16 %50, %53
  %55 = sext i16 %54 to i64
  %56 = getelementptr inbounds i8, ptr %0, i64 88
  store i64 %55, ptr %56, align 8
  store ptr %6, ptr %2, align 8
  br label %57

57:                                               ; preds = %1, %8
  %.0 = phi i32 [ 0, %8 ], [ 20, %1 ]
  ret i32 %.0
}